; Function Attrs: mustprogress nofree norecurse nosync nounwind willreturn memory(readwrite, inaccessiblemem: none) uwtable
define noundef i32 @H5B2_patch_file(ptr noundef captures(none) %0, ptr noundef %1) local_unnamed_addr #3 {
  %3 = load i8, ptr @H5B2_init_g, align 1, !tbaa !3, !range !7, !noundef !8
  %4 = trunc nuw i8 %3 to i1
  %5 = load i8, ptr @H5_libterm_g, align 1, !range !7
  %6 = trunc nuw i8 %5 to i1
  %7 = xor i1 %6, true
  %8 = select i1 %4, i1 true, i1 %7
  br i1 %8, label %9, label %17, !prof !9

9:                                                ; preds = %2
  %10 = getelementptr inbounds nuw i8, ptr %0, i64 8
  %11 = load ptr, ptr %10, align 8, !tbaa !18
  %.not = icmp eq ptr %11, %1
  %.pre = load ptr, ptr %0, align 8, !tbaa !13
  br i1 %.not, label %12, label %15

12:                                               ; preds = %9
  %13 = getelementptr inbounds nuw i8, ptr %.pre, i64 288
  %14 = load ptr, ptr %13, align 8, !tbaa !19
  %.not7 = icmp eq ptr %14, %1
  br i1 %.not7, label %17, label %15

15:                                               ; preds = %12, %9
  %16 = getelementptr inbounds nuw i8, ptr %.pre, i64 288
  store ptr %1, ptr %16, align 8, !tbaa !19
  store ptr %1, ptr %10, align 8, !tbaa !18
  br label %17

17:                                               ; preds = %12, %15, %2
  ret i32 0
}